; Function Attrs: mustprogress uwtable
define void @_ZN12ErrorHandler13GeneralErrMsgEPKwz(ptr nocapture noundef nonnull readnone align 4 dereferenceable(14) %0, ptr noundef %1, ...) local_unnamed_addr #2 align 2 {
  %3 = alloca %class.uiMsgStore, align 8
  %4 = alloca [1 x %struct.__va_list_tag], align 16
  %5 = alloca [1024 x i32], align 16
  call void @llvm.va_start.p0(ptr nonnull %4)
  %6 = call i32 @vswprintf(ptr noundef nonnull %5, i64 noundef 1024, ptr noundef %1, ptr noundef nonnull %4) #15
  call void @llvm.lifetime.start.p0(i64 112, ptr nonnull %3)
  br label %7

7:                                                ; preds = %7, %2
  %indvars.iv.i.i = phi i64 [ 0, %2 ], [ %indvars.iv.next.i.i, %7 ]
  %8 = getelementptr inbounds [8 x ptr], ptr %3, i64 0, i64 %indvars.iv.i.i
  store ptr @.str, ptr %8, align 8
  %indvars.iv.next.i.i = add nuw nsw i64 %indvars.iv.i.i, 1
  %exitcond.not.i.i = icmp eq i64 %indvars.iv.next.i.i, 8
  br i1 %exitcond.not.i.i, label %_Z5uiMsgIJRA1024_wEEv14UIMESSAGE_CODEDpOT_.exit, label %7, !llvm.loop !4

_Z5uiMsgIJRA1024_wEEv14UIMESSAGE_CODEDpOT_.exit:  ; preds = %7
  %9 = getelementptr inbounds i8, ptr %3, i64 64
  %10 = getelementptr inbounds i8, ptr %3, i64 104
  call void @llvm.memset.p0.i64(ptr noundef nonnull align 8 dereferenceable(40) %9, i8 0, i64 40, i1 false)
  store i32 1, ptr %10, align 8
  %11 = getelementptr inbounds i8, ptr %3, i64 96
  store i32 1, ptr %11, align 8
  store ptr %5, ptr %3, align 8
  call void @_ZN10uiMsgStore3MsgEv(ptr noundef nonnull align 8 dereferenceable(108) %3)
  call void @llvm.lifetime.end.p0(i64 112, ptr nonnull %3)
  call void @llvm.va_end.p0(ptr nonnull %4)
  ret void
}